; Function Attrs: mustprogress nofree norecurse nosync nounwind willreturn memory(argmem: write) uwtable
define void @aiIdentityMatrix3(ptr nocapture noundef writeonly %mat) local_unnamed_addr #13 {
entry:
  store <4 x float> <float 1.000000e+00, float 0.000000e+00, float 0.000000e+00, float 0.000000e+00>, ptr %mat, align 4
  %ref.tmp.sroa.5.0.mat.sroa_idx = getelementptr inbounds i8, ptr %mat, i64 16
  store <4 x float> <float 1.000000e+00, float 0.000000e+00, float 0.000000e+00, float 0.000000e+00>, ptr %ref.tmp.sroa.5.0.mat.sroa_idx, align 4
  %ref.tmp.sroa.9.0.mat.sroa_idx = getelementptr inbounds i8, ptr %mat, i64 32
  store float 1.000000e+00, ptr %ref.tmp.sroa.9.0.mat.sroa_idx, align 4
  ret void
}